Certificate:
    Data:
        Version: 3 (0x2)
        Serial Number: 6 (0x6)
        Signature Algorithm: sha256WithRSAEncryption
        Issuer: C=cn, ST=sichuan, L=chengdu, O=Internet Widgits Pty Ltd, CN=test.seve.com
        Validity
            Not Before: Jan  5 06:32:18 2023 GMT
            Not After : Jan  5 06:32:18 2024 GMT
        Subject: C=cn, ST=sichuan, O=Internet Widgits Pty Ltd, CN=test.seve.com
        Subject Public Key Info:
            Public Key Algorithm: rsaEncryption
                Public-Key: (2048 bit)
                Modulus:
                    00:b1:a7:0a:0c:04:40:58:89:89:c0:ef:9f:36:a1:
                    79:58:ed:f6:0d:9e:de:81:19:17:c9:b3:ca:30:41:
                    8a:38:66:e2:43:c2:09:3e:90:31:9f:85:0a:bf:bc:
                    52:3e:37:cf:36:a2:11:c9:39:d2:e6:e6:53:11:3c:
                    db:d7:b9:08:c5:5c:21:b6:dd:22:77:66:4b:f4:73:
                    11:cc:dd:20:9f:a0:91:1d:35:6e:07:03:08:79:f3:
                    ba:a4:8d:07:b2:4d:09:6f:39:35:52:4a:cc:18:f3:
                    2e:c1:be:a8:04:70:57:6f:a9:ca:03:b8:23:b0:88:
                    8f:32:e5:97:8e:e6:7c:4a:8a:8d:90:fb:48:6d:48:
                    e0:8a:3a:9c:64:a4:72:1a:49:09:ab:99:45:f1:c5:
                    da:9d:d8:84:0a:62:d7:f9:b2:ed:a5:71:54:96:22:
                    af:cd:5f:84:30:4b:83:32:e1:23:36:33:cd:56:80:
                    27:d6:f2:16:8c:3c:6e:45:02:ac:95:b3:33:95:53:
                    fa:67:36:cf:be:c4:a9:55:8f:e6:7e:92:9a:bb:bc:
                    63:f2:31:01:53:78:fc:d8:87:92:c4:08:89:6c:c9:
                    72:e5:36:e6:e0:ca:5f:9a:bc:42:7d:c5:0e:6f:d5:
                    9c:2e:84:66:3e:ae:29:57:61:5f:c8:1a:97:08:ee:
                    92:29
                Exponent: 65537 (0x10001)
        X509v3 extensions:
            X509v3 Basic Constraints: 
                CA:FALSE
            X509v3 Subject Key Identifier: 
                78:32:AA:6E:2B:9F:AF:60:01:73:26:D3:F1:A8:B8:CD:8B:D3:C9:BB
            X509v3 Authority Key Identifier: 
                50:9E:04:CC:81:4E:F3:E9:29:A9:B8:C6:D7:94:6C:57:E3:15:0E:6D
    Signature Algorithm: sha256WithRSAEncryption
    Signature Value:
        38:b6:52:81:48:f3:82:21:a8:c9:0a:4e:ff:66:3f:64:22:dc:
        8a:e4:f3:29:3f:24:64:84:19:0c:47:63:5c:6f:9d:e3:17:1f:
        42:90:7d:63:e3:5a:58:39:4b:28:46:af:07:db:45:cb:24:02:
        49:71:a0:9a:c3:78:4b:7a:8b:ae:2a:fe:3a:7f:24:63:60:b3:
        dc:18:b8:b2:a9:a8:82:89:e9:56:c4:21:3c:ff:a9:a3:10:0c:
        60:2b:9e:d4:20:79:2e:c8:ae:e7:d1:f3:67:47:ec:c6:3d:e4:
        9e:87:a0:25:14:b0:7e:03:dc:61:d1:54:22:25:0b:ac:3e:c0:
        97:7b:f0:b7:2a:f5:83:85:3b:96:11:a1:e7:52:62:cb:77:b2:
        4e:d6:2b:ba:e9:9b:f2:92:b5:03:92:8f:b2:4f:56:9d:be:83:
        45:b1:b6:7b:6a:f3:60:e4:8b:d7:6f:48:17:7d:f4:1a:4b:ad:
        be:5f:e4:95:8e:62:a1:91:4a:e2:b9:02:32:91:2f:e6:df:44:
        df:d5:5f:51:4c:97:71:c1:39:1b:f9:54:bf:40:12:66:d3:84:
        d6:82:a6:65:ff:61:ce:2c:20:cb:98:2c:e4:2c:ca:57:cb:b8:
        27:d3:6f:51:9e:b2:39:b2:c8:18:43:52:54:72:8a:e7:20:ae:
        6a:a2:bd:c6
-----BEGIN CERTIFICATE-----
MIIDjjCCAnagAwIBAgIBBjANBgkqhkiG9w0BAQsFADBsMQswCQYDVQQGEwJjbjEQ
MA4GA1UECAwHc2ljaHVhbjEQMA4GA1UEBwwHY2hlbmdkdTEhMB8GA1UECgwYSW50
ZXJuZXQgV2lkZ2l0cyBQdHkgTHRkMRYwFAYDVQQDDA10ZXN0LnNldmUuY29tMB4X
DTIzMDEwNTA2MzIxOFoXDTI0MDEwNTA2MzIxOFowWjELMAkGA1UEBhMCY24xEDAO
BgNVBAgMB3NpY2h1YW4xITAfBgNVBAoMGEludGVybmV0IFdpZGdpdHMgUHR5IEx0
ZDEWMBQGA1UEAwwNdGVzdC5zZXZlLmNvbTCCASIwDQYJKoZIhvcNAQEBBQADggEP
ADCCAQoCggEBALGnCgwEQFiJicDvnzaheVjt9g2e3oEZF8mzyjBBijhm4kPCCT6Q
MZ+FCr+8Uj43zzaiEck50ubmUxE829e5CMVcIbbdIndmS/RzEczdIJ+gkR01bgcD
CHnzuqSNB7JNCW85NVJKzBjzLsG+qARwV2+pygO4I7CIjzLll47mfEqKjZD7SG1I
4Io6nGSkchpJCauZRfHF2p3YhApi1/my7aVxVJYir81fhDBLgzLhIzYzzVaAJ9by
Fow8bkUCrJWzM5VT+mc2z77EqVWP5n6Smru8Y/IxAVN4/NiHksQIiWzJcuU25uDK
X5q8Qn3FDm/VnC6EZj6uKVdhX8galwjukikCAwEAAaNNMEswCQYDVR0TBAIwADAd
BgNVHQ4EFgQUeDKqbiufr2ABcybT8ai4zYvTybswHwYDVR0jBBgwFoAUUJ4EzIFO
8+kpqbjG15RsV+MVDm0wDQYJKoZIhvcNAQELBQADggEBADi2UoFI84IhqMkKTv9m
P2Qi3Irk8yk/JGSEGQxHY1xvneMXH0KQfWPjWlg5SyhGrwfbRcskAklxoJrDeEt6
i64q/jp/JGNgs9wYuLKpqIKJ6VbEITz/qaMQDGArntQgeS7IrufR82dH7MY95J6H
oCUUsH4D3GHRVCIlC6w+wJd78Lcq9YOFO5YRoedSYst3sk7WK7rpm/KStQOSj7JP
Vp2+g0Wxtntq82Dki9dvSBd99BpLrb5f5JWOYqGRSuK5AjKRL+bfRN/VX1FMl3HB
ORv5VL9AEmbThNaCpmX/Yc4sIMuYLOQsylfLuCfTb1GesjmyyBhDUlRyiucgrmqi
vcY=
-----END CERTIFICATE-----