Certificate:
    Data:
        Version: 3 (0x2)
        Serial Number: 5 (0x5)
        Signature Algorithm: sha256WithRSAEncryption
        Issuer: C=cn, ST=sichuan, L=chengdu, O=Internet Widgits Pty Ltd, CN=test.seve.com
        Validity
            Not Before: Jan  5 06:29:24 2023 GMT
            Not After : Jan  5 06:29:24 2024 GMT
        Subject: C=cn, ST=sichuan, O=Internet Widgits Pty Ltd, CN=test.grpc1.com
        Subject Public Key Info:
            Public Key Algorithm: rsaEncryption
                Public-Key: (2048 bit)
                Modulus:
                    00:ad:59:d1:64:db:a0:e8:35:7a:5c:4a:af:59:f3:
                    38:f1:df:d5:f9:26:19:08:2d:36:55:c4:c9:17:e3:
                    7e:78:97:7a:72:3e:8e:0d:28:89:b6:e3:da:79:66:
                    29:83:4a:5d:4b:df:53:71:e1:0c:dd:59:60:0e:93:
                    1e:61:c8:58:99:ea:d0:dc:42:c7:a4:6e:a4:cf:d0:
                    fb:4b:f5:e2:56:05:27:0b:9c:26:61:a3:33:d8:47:
                    54:fb:13:e6:3e:0b:e4:b6:b3:f0:d1:c0:cb:05:b8:
                    0b:87:12:df:82:f4:0f:21:7a:e7:e8:65:80:97:fb:
                    c1:b9:15:62:5c:24:89:bc:62:93:93:86:d2:28:7b:
                    60:0e:8f:01:14:9b:c5:7d:1f:99:9e:92:98:c2:5b:
                    c6:3c:4d:b8:ba:20:66:02:2d:6b:3b:e4:e0:59:b4:
                    14:03:29:4b:33:88:6a:3b:ee:2e:1a:90:37:11:f6:
                    f3:4b:80:bb:99:8d:0d:b9:38:11:25:94:09:ce:1c:
                    8b:2a:18:5f:a2:0c:2f:e2:cd:ec:a6:aa:76:98:1d:
                    3d:dd:a7:e4:a4:af:51:00:d3:a3:19:9f:c0:d1:ec:
                    1d:a4:94:28:41:7c:09:e2:d2:63:51:9e:6f:42:14:
                    fa:5e:11:7e:78:47:50:f9:79:bf:69:76:61:06:8d:
                    15:2f
                Exponent: 65537 (0x10001)
        X509v3 extensions:
            X509v3 Subject Alternative Name: 
                DNS:test.grpc1.com, IP Address:127.0.0.1
            X509v3 Subject Key Identifier: 
                3C:91:2A:02:2C:40:70:28:6A:40:59:5E:5F:2A:AF:CE:9F:84:B2:10
            X509v3 Authority Key Identifier: 
                50:9E:04:CC:81:4E:F3:E9:29:A9:B8:C6:D7:94:6C:57:E3:15:0E:6D
    Signature Algorithm: sha256WithRSAEncryption
    Signature Value:
        81:ea:29:ab:96:eb:a2:ed:9f:f7:21:b2:d2:e5:5e:81:3d:37:
        43:19:f1:02:94:b2:84:27:a1:13:88:6e:16:e2:2b:c9:f5:61:
        ca:da:ab:7b:94:11:66:9b:08:a0:4f:eb:b2:a5:7d:d1:29:56:
        37:99:64:2c:37:f9:8c:af:d1:ee:62:6a:8f:b1:4c:b1:cf:7e:
        81:62:e2:45:f1:19:7e:39:02:f1:77:82:ce:5b:31:cb:6c:01:
        19:a5:ae:a3:3a:51:5d:6d:ba:e8:da:b8:f7:58:9d:c0:f6:21:
        c7:79:21:0b:fc:b6:b3:8e:ea:13:2d:2d:bb:88:39:05:2a:ee:
        b4:19:fb:20:a2:c7:08:07:13:fc:7c:f8:a0:00:b6:79:39:d5:
        3a:f7:c1:fb:a6:ad:d5:ab:41:b0:5d:aa:8e:56:31:b2:02:dc:
        2c:2f:03:8a:63:ab:a8:f4:78:ce:eb:20:12:59:11:ad:58:f8:
        40:ea:04:13:90:ba:2a:1e:ca:bf:b3:6b:47:9f:90:5b:79:00:
        fa:94:23:33:74:ec:84:ae:bc:75:2d:c4:e2:4b:b9:6c:90:7b:
        60:fd:d4:8a:78:53:84:38:ad:5b:e4:10:54:d1:d3:cd:2e:d4:
        9c:a9:5b:4c:74:79:1e:44:89:7f:c0:89:b5:63:56:b3:a0:d7:
        92:00:28:71
-----BEGIN CERTIFICATE-----
MIIDpTCCAo2gAwIBAgIBBTANBgkqhkiG9w0BAQsFADBsMQswCQYDVQQGEwJjbjEQ
MA4GA1UECAwHc2ljaHVhbjEQMA4GA1UEBwwHY2hlbmdkdTEhMB8GA1UECgwYSW50
ZXJuZXQgV2lkZ2l0cyBQdHkgTHRkMRYwFAYDVQQDDA10ZXN0LnNldmUuY29tMB4X
DTIzMDEwNTA2MjkyNFoXDTI0MDEwNTA2MjkyNFowWzELMAkGA1UEBhMCY24xEDAO
BgNVBAgMB3NpY2h1YW4xITAfBgNVBAoMGEludGVybmV0IFdpZGdpdHMgUHR5IEx0
ZDEXMBUGA1UEAwwOdGVzdC5ncnBjMS5jb20wggEiMA0GCSqGSIb3DQEBAQUAA4IB
DwAwggEKAoIBAQCtWdFk26DoNXpcSq9Z8zjx39X5JhkILTZVxMkX4354l3pyPo4N
KIm249p5ZimDSl1L31Nx4QzdWWAOkx5hyFiZ6tDcQsekbqTP0PtL9eJWBScLnCZh
ozPYR1T7E+Y+C+S2s/DRwMsFuAuHEt+C9A8heufoZYCX+8G5FWJcJIm8YpOThtIo
e2AOjwEUm8V9H5mekpjCW8Y8Tbi6IGYCLWs75OBZtBQDKUsziGo77i4akDcR9vNL
gLuZjQ25OBEllAnOHIsqGF+iDC/izeymqnaYHT3dp+Skr1EA06MZn8DR7B2klChB
fAni0mNRnm9CFPpeEX54R1D5eb9pdmEGjRUvAgMBAAGjYzBhMB8GA1UdEQQYMBaC
DnRlc3QuZ3JwYzEuY29thwR/AAABMB0GA1UdDgQWBBQ8kSoCLEBwKGpAWV5fKq/O
n4SyEDAfBgNVHSMEGDAWgBRQngTMgU7z6SmpuMbXlGxX4xUObTANBgkqhkiG9w0B
AQsFAAOCAQEAgeopq5brou2f9yGy0uVegT03QxnxApSyhCehE4huFuIryfVhytqr
e5QRZpsIoE/rsqV90SlWN5lkLDf5jK/R7mJqj7FMsc9+gWLiRfEZfjkC8XeCzlsx
y2wBGaWuozpRXW266Nq491idwPYhx3khC/y2s47qEy0tu4g5BSrutBn7IKLHCAcT
/Hz4oAC2eTnVOvfB+6at1atBsF2qjlYxsgLcLC8DimOrqPR4zusgElkRrVj4QOoE
E5C6Kh7Kv7NrR5+QW3kA+pQjM3TshK68dS3E4ku5bJB7YP3UinhThDitW+QQVNHT
zS7UnKlbTHR5HkSJf8CJtWNWs6DXkgAocQ==
-----END CERTIFICATE-----